; Function Attrs: mustprogress uwtable
define void @_ZN12ByteViewText10detachDataEv(ptr noundef nonnull align 8 dereferenceable(328) %0) local_unnamed_addr #0 align 2 personality ptr @__gxx_personality_v0 {
  %2 = getelementptr inbounds i8, ptr %0, i64 56
  %3 = load ptr, ptr %2, align 8
  %.not.i.i = icmp eq ptr %3, null
  br i1 %.not.i.i, label %_ZNK17QArrayDataPointerIcE11needsDetachEv.exit.thread.i, label %_ZNK17QArrayDataPointerIcE11needsDetachEv.exit.i

_ZNK17QArrayDataPointerIcE11needsDetachEv.exit.i: ; preds = %1
  %4 = load atomic i32, ptr %3 monotonic, align 4
  %5 = icmp sgt i32 %4, 1
  br i1 %5, label %_ZNK17QArrayDataPointerIcE11needsDetachEv.exit.thread.i, label %_ZN10QByteArray6detachEv.exit

_ZNK17QArrayDataPointerIcE11needsDetachEv.exit.thread.i: ; preds = %_ZNK17QArrayDataPointerIcE11needsDetachEv.exit.i, %1
  %6 = getelementptr inbounds i8, ptr %0, i64 72
  %7 = load i64, ptr %6, align 8
  tail call void @_ZN10QByteArray11reallocDataExN10QArrayData16AllocationOptionE(ptr noundef nonnull align 8 dereferenceable(24) %2, i64 noundef %7, i32 noundef 1)
  br label %_ZN10QByteArray6detachEv.exit

_ZN10QByteArray6detachEv.exit:                    ; preds = %_ZNK17QArrayDataPointerIcE11needsDetachEv.exit.i, %_ZNK17QArrayDataPointerIcE11needsDetachEv.exit.thread.i
  ret void
}